target datalayout = "e-m:e-p270:32:32-p271:32:32-p272:64:64-i64:64-i128:128-f80:128-n8:16:32:64-S128"
target triple = "x86_64-pc-linux-gnu"

%struct.FFEBUR128State = type { i32, i32, i64, ptr }
%struct.FFEBUR128StateInternal = type { ptr, i64, i64, i64, ptr, i64, [5 x double], [5 x double], [5 x [5 x double]], ptr, ptr, i64, ptr, i64, ptr }

; Function Attrs: nounwind uwtable
define i32 @ff_ebur128_set_channel(ptr noundef %0, i32 noundef %1, i32 noundef %2) #0 {
  %4 = alloca i32, align 4
  %5 = alloca ptr, align 8
  %6 = alloca i32, align 4
  %7 = alloca i32, align 4
  store ptr %0, ptr %5, align 8, !tbaa !10
  store i32 %1, ptr %6, align 4, !tbaa !4
  store i32 %2, ptr %7, align 4, !tbaa !4
  %8 = load i32, ptr %6, align 4, !tbaa !4
  %9 = load ptr, ptr %5, align 8, !tbaa !10
  %10 = getelementptr inbounds nuw %struct.FFEBUR128State, ptr %9, i32 0, i32 1
  %11 = load i32, ptr %10, align 4, !tbaa !16
  %12 = icmp uge i32 %8, %11
  br i1 %12, label %13, label %14

13:                                               ; preds = %3
  store i32 1, ptr %4, align 4
  br label %36

14:                                               ; preds = %3
  %15 = load i32, ptr %7, align 4, !tbaa !4
  %16 = icmp eq i32 %15, 6
  br i1 %16, label %17, label %26

17:                                               ; preds = %14
  %18 = load ptr, ptr %5, align 8, !tbaa !10
  %19 = getelementptr inbounds nuw %struct.FFEBUR128State, ptr %18, i32 0, i32 1
  %20 = load i32, ptr %19, align 4, !tbaa !16
  %21 = icmp ne i32 %20, 1
  br i1 %21, label %25, label %22

22:                                               ; preds = %17
  %23 = load i32, ptr %6, align 4, !tbaa !4
  %24 = icmp ne i32 %23, 0
  br i1 %24, label %25, label %26

25:                                               ; preds = %22, %17
  store i32 1, ptr %4, align 4
  br label %36

26:                                               ; preds = %22, %14
  %27 = load i32, ptr %7, align 4, !tbaa !4
  %28 = load ptr, ptr %5, align 8, !tbaa !10
  %29 = getelementptr inbounds nuw %struct.FFEBUR128State, ptr %28, i32 0, i32 3
  %30 = load ptr, ptr %29, align 8, !tbaa !13
  %31 = getelementptr inbounds nuw %struct.FFEBUR128StateInternal, ptr %30, i32 0, i32 4
  %32 = load ptr, ptr %31, align 8, !tbaa !35
  %33 = load i32, ptr %6, align 4, !tbaa !4
  %34 = zext i32 %33 to i64
  %35 = getelementptr inbounds nuw i32, ptr %32, i64 %34
  store i32 %27, ptr %35, align 4, !tbaa !4
  store i32 0, ptr %4, align 4
  br label %36

36:                                               ; preds = %26, %25, %13
  %37 = load i32, ptr %4, align 4
  ret i32 %37
}