; Function Attrs: mustprogress nofree norecurse nosync nounwind willreturn memory(readwrite, inaccessiblemem: none) uwtable
define range(i32 0, 2) i32 @ff_ebur128_set_channel(ptr noundef readonly captures(none) %0, i32 noundef %1, i32 noundef %2) local_unnamed_addr #4 {
  %4 = getelementptr inbounds nuw i8, ptr %0, i64 4
  %5 = load i32, ptr %4, align 4, !tbaa !12
  %.not = icmp ult i32 %1, %5
  br i1 %.not, label %6, label %16

6:                                                ; preds = %3
  %7 = icmp eq i32 %2, 6
  %8 = icmp ne i32 %5, 1
  %or.cond = and i1 %7, %8
  br i1 %or.cond, label %16, label %9

9:                                                ; preds = %6
  %10 = getelementptr inbounds nuw i8, ptr %0, i64 16
  %11 = load ptr, ptr %10, align 8, !tbaa !4
  %12 = getelementptr inbounds nuw i8, ptr %11, i64 32
  %13 = load ptr, ptr %12, align 8, !tbaa !13
  %14 = zext i32 %1 to i64
  %15 = getelementptr inbounds nuw i32, ptr %13, i64 %14
  store i32 %2, ptr %15, align 4, !tbaa !19
  br label %16

16:                                               ; preds = %6, %3, %9
  %.0 = phi i32 [ 0, %9 ], [ 1, %3 ], [ 1, %6 ]
  ret i32 %.0
}